; Function Attrs: mustprogress uwtable
define hidden noundef zeroext i1 @_ZN8facebook6hermes7tracing14TracingRuntime15drainMicrotasksEi(ptr noundef nonnull align 8 dereferenceable(172) %this, i32 noundef %maxMicrotasksHint) unnamed_addr #0 align 2 {
entry:
  %maxMicrotasksHint.addr = alloca i32, align 4
  %ref.tmp = alloca %"class.std::chrono::duration.37", align 8
  store i32 %maxMicrotasksHint, ptr %maxMicrotasksHint.addr, align 4
  %plain_.i.i = getelementptr inbounds i8, ptr %this, i64 16
  %0 = load ptr, ptr %plain_.i.i, align 8
  %vtable.i = load ptr, ptr %0, align 8
  %vfn.i = getelementptr inbounds i8, ptr %vtable.i, i64 40
  %1 = load ptr, ptr %vfn.i, align 8
  %call2.i = tail call noundef zeroext i1 %1(ptr noundef nonnull align 8 dereferenceable(8) %0, i32 noundef %maxMicrotasksHint)
  %trace_ = getelementptr inbounds i8, ptr %this, i64 32
  %call.i = tail call i64 @_ZNSt6chrono3_V212steady_clock3nowEv() #27
  %startTime_.i = getelementptr inbounds i8, ptr %this, i64 160
  %retval.sroa.0.0.copyload.i1.i.i = load i64, ptr %startTime_.i, align 8
  %sub.i.i.i = sub nsw i64 %call.i, %retval.sroa.0.0.copyload.i1.i.i
  %div.i.i.i = sdiv i64 %sub.i.i.i, 1000000
  store i64 %div.i.i.i, ptr %ref.tmp, align 8
  call void @_ZN8facebook6hermes7tracing10SynthTrace12emplace_backINS2_21DrainMicrotasksRecordEJNSt6chrono8durationIlSt5ratioILl1ELl1000EEEERiEEEvDpOT0_(ptr noundef nonnull align 8 dereferenceable(48) %trace_, ptr noundef nonnull align 8 dereferenceable(8) %ref.tmp, ptr noundef nonnull align 4 dereferenceable(4) %maxMicrotasksHint.addr)
  ret i1 %call2.i
}